target datalayout = "e-m:e-p270:32:32-p271:32:32-p272:64:64-i64:64-i128:128-f80:128-n8:16:32:64-S128"
target triple = "x86_64-pc-linux-gnu"

%struct.Vmem = type { ptr, i64, i64 }
%union.SourceSpan = type { i64 }
%struct.Ast_ = type { %union.SourceSpan, i32, i8, %union.anon.62 }
%union.anon.62 = type { %struct.AstDocDirective_ }
%struct.AstDocDirective_ = type { i8, %union.anon.65 }
%union.anon.65 = type { %struct.anon.66 }
%struct.anon.66 = type { ptr, %union.SourceSpan, i8 }
%struct.SemaContext_ = type { ptr, ptr, ptr, %struct.CallEnv, ptr, %union.SourceSpan, i32, i32, ptr, i32, ptr, i32, i32, ptr, ptr, i32, %struct.anon.85, ptr, ptr, ptr, %struct.DynamicScope_, ptr }
%struct.CallEnv = type { i16, ptr, %union.anon.84 }
%union.anon.84 = type { ptr }
%struct.anon.85 = type { i32, ptr, ptr, ptr, ptr, ptr, ptr, ptr, ptr, ptr, i8, ptr }
%struct.DynamicScope_ = type { i32, i8, i32, i32, i32, i32, i32, ptr, i32 }
%struct.Decl_ = type { ptr, ptr, %union.SourceSpan, i64, %union.anon, i32, %union.anon.0, i64, ptr, ptr, ptr, %union.anon.1 }
%union.anon = type { ptr }
%union.anon.0 = type { i16 }
%union.anon.1 = type { %struct.FuncDecl }
%struct.FuncDecl = type { i32, [4 x i8], %struct.Signature_, i32, i32, %union.anon.8 }
%struct.Signature_ = type <{ %struct.CalleeAttributes, i16, i8, i32, i32, [4 x i8], ptr }>
%struct.CalleeAttributes = type { i8 }
%union.anon.8 = type { %struct.anon.9 }
%struct.anon.9 = type { i16, %union.anon.10 }
%union.anon.10 = type { ptr }
%struct.AstContinueBreakStmt = type { i8, i32, %union.anon.64 }
%union.anon.64 = type { %struct.Label }
%struct.Label = type { ptr, %union.SourceSpan }
%struct.LabelDecl = type { i32, i8, %union.anon.12, ptr, i32, i32 }
%union.anon.12 = type { ptr }
%struct.AstNextcaseStmt = type { i32, %union.anon.78 }
%union.anon.78 = type { %struct.anon.79 }
%struct.anon.79 = type { %struct.Label, i32, i8 }

@.str.15 = private unnamed_addr constant [36 x i8] c"FATAL ERROR %s -> in %s @ in %s:%d \00", align 1
@.str.16 = private unnamed_addr constant [22 x i8] c"Should be unreachable\00", align 1
@.str.17 = private unnamed_addr constant [111 x i8] c"generated/home/dtcxzyw/WorkSpace/Projects/compilers/llvm-opt-benchmark/bench/c3c/c3c/src/compiler/sema_stmts.c\00", align 1
@.str.27 = private unnamed_addr constant [45 x i8] c"You cannot break out of an expression block.\00", align 1
@poisoned_decl = external global ptr, align 8
@.str.28 = private unnamed_addr constant [52 x i8] c"You cannot use continue out of an expression block.\00", align 1
@.str.29 = private unnamed_addr constant [53 x i8] c"You cannot use nextcase to exit an expression block.\00", align 1
@__func__.sema_analyse_label = private unnamed_addr constant [19 x i8] c"sema_analyse_label\00", align 1
@.str.30 = private unnamed_addr constant [33 x i8] c"You cannot break out of a defer.\00", align 1
@.str.31 = private unnamed_addr constant [40 x i8] c"You cannot use continue out of a defer.\00", align 1
@.str.32 = private unnamed_addr constant [40 x i8] c"You cannot use nextcase out of a defer.\00", align 1
@.str.33 = private unnamed_addr constant [47 x i8] c"'%s' cannot be reached from the current scope.\00", align 1
@.str.34 = private unnamed_addr constant [77 x i8] c"A labelled statement with the name '%s' can't be found in the current scope.\00", align 1
@.str.35 = private unnamed_addr constant [52 x i8] c"Expected the name to match a label, not a constant.\00", align 1
@ast_arena = external global %struct.Vmem, align 8

; Function Attrs: nounwind uwtable
define internal i32 @astid(ptr noundef %0) #0 {
  %2 = alloca ptr, align 8
  store ptr %0, ptr %2, align 8
  %3 = load ptr, ptr %2, align 8
  %4 = load ptr, ptr @ast_arena, align 8
  %5 = ptrtoint ptr %3 to i64
  %6 = ptrtoint ptr %4 to i64
  %7 = sub i64 %5, %6
  %8 = sdiv exact i64 %7, 48
  %9 = trunc i64 %8 to i32
  ret i32 %9
}

; Function Attrs: nounwind uwtable
define internal ptr @sema_analyse_label(ptr noundef %0, ptr noundef %1) #0 {
  %3 = alloca ptr, align 8
  %4 = alloca ptr, align 8
  %5 = alloca ptr, align 8
  %6 = alloca ptr, align 8
  %7 = alloca ptr, align 8
  %8 = alloca ptr, align 8
  store ptr %0, ptr %4, align 8
  store ptr %1, ptr %5, align 8
  %9 = load ptr, ptr %5, align 8
  %10 = getelementptr inbounds %struct.Ast_, ptr %9, i32 0, i32 2
  %11 = load i8, ptr %10, align 4
  %12 = zext i8 %11 to i32
  %13 = icmp eq i32 %12, 28
  br i1 %13, label %14, label %19

14:                                               ; preds = %2
  %15 = load ptr, ptr %5, align 8
  %16 = getelementptr inbounds %struct.Ast_, ptr %15, i32 0, i32 3
  %17 = getelementptr inbounds %struct.AstNextcaseStmt, ptr %16, i32 0, i32 1
  %18 = getelementptr inbounds %struct.anon.79, ptr %17, i32 0, i32 0
  br label %23

19:                                               ; preds = %2
  %20 = load ptr, ptr %5, align 8
  %21 = getelementptr inbounds %struct.Ast_, ptr %20, i32 0, i32 3
  %22 = getelementptr inbounds %struct.AstContinueBreakStmt, ptr %21, i32 0, i32 2
  br label %23

23:                                               ; preds = %19, %14
  %24 = phi ptr [ %18, %14 ], [ %22, %19 ]
  store ptr %24, ptr %6, align 8
  %25 = load ptr, ptr %6, align 8
  %26 = getelementptr inbounds %struct.Label, ptr %25, i32 0, i32 0
  %27 = load ptr, ptr %26, align 8
  store ptr %27, ptr %7, align 8
  %28 = load ptr, ptr %4, align 8
  %29 = load ptr, ptr %7, align 8
  %30 = call ptr @sema_find_label_symbol(ptr noundef %28, ptr noundef %29)
  store ptr %30, ptr %8, align 8
  %31 = load ptr, ptr %8, align 8
  %32 = icmp ne ptr %31, null
  br i1 %32, label %132, label %33

33:                                               ; preds = %23
  %34 = load ptr, ptr %4, align 8
  %35 = load ptr, ptr %7, align 8
  %36 = call ptr @sema_find_label_symbol_anywhere(ptr noundef %34, ptr noundef %35)
  store ptr %36, ptr %8, align 8
  %37 = load ptr, ptr %8, align 8
  %38 = icmp ne ptr %37, null
  br i1 %38, label %39, label %125

39:                                               ; preds = %33
  %40 = load ptr, ptr %8, align 8
  %41 = getelementptr inbounds %struct.Decl_, ptr %40, i32 0, i32 3
  %42 = load i64, ptr %41, align 8
  %43 = and i64 %42, 127
  %44 = trunc i64 %43 to i32
  %45 = icmp eq i32 %44, 20
  br i1 %45, label %46, label %125

46:                                               ; preds = %39
  %47 = load ptr, ptr %4, align 8
  %48 = getelementptr inbounds %struct.SemaContext_, ptr %47, i32 0, i32 20
  %49 = getelementptr inbounds %struct.DynamicScope_, ptr %48, i32 0, i32 2
  %50 = load i32, ptr %49, align 8
  %51 = and i32 %50, 8
  %52 = icmp ne i32 %51, 0
  br i1 %52, label %53, label %80

53:                                               ; preds = %46
  %54 = load ptr, ptr %5, align 8
  %55 = getelementptr inbounds %struct.Ast_, ptr %54, i32 0, i32 2
  %56 = load i8, ptr %55, align 4
  %57 = zext i8 %56 to i32
  switch i32 %57, label %76 [
    i32 4, label %58
    i32 7, label %64
    i32 28, label %70
  ]

58:                                               ; preds = %53
  %59 = load ptr, ptr %5, align 8
  %60 = getelementptr inbounds %struct.Ast_, ptr %59, i32 0, i32 0
  %61 = getelementptr inbounds %union.SourceSpan, ptr %60, i32 0, i32 0
  %62 = load i64, ptr %61, align 8
  call void (i64, ptr, ...) @sema_error_at(i64 %62, ptr noundef @.str.27)
  %63 = load ptr, ptr @poisoned_decl, align 8
  store ptr %63, ptr %3, align 8
  br label %192

64:                                               ; preds = %53
  %65 = load ptr, ptr %5, align 8
  %66 = getelementptr inbounds %struct.Ast_, ptr %65, i32 0, i32 0
  %67 = getelementptr inbounds %union.SourceSpan, ptr %66, i32 0, i32 0
  %68 = load i64, ptr %67, align 8
  call void (i64, ptr, ...) @sema_error_at(i64 %68, ptr noundef @.str.28)
  %69 = load ptr, ptr @poisoned_decl, align 8
  store ptr %69, ptr %3, align 8
  br label %192

70:                                               ; preds = %53
  %71 = load ptr, ptr %5, align 8
  %72 = getelementptr inbounds %struct.Ast_, ptr %71, i32 0, i32 0
  %73 = getelementptr inbounds %union.SourceSpan, ptr %72, i32 0, i32 0
  %74 = load i64, ptr %73, align 8
  call void (i64, ptr, ...) @sema_error_at(i64 %74, ptr noundef @.str.29)
  %75 = load ptr, ptr @poisoned_decl, align 8
  store ptr %75, ptr %3, align 8
  br label %192

76:                                               ; preds = %53
  br label %77

77:                                               ; preds = %76
  call void (ptr, ...) @error_exit(ptr noundef @.str.15, ptr noundef @.str.16, ptr noundef @__func__.sema_analyse_label, ptr noundef @.str.17, i32 noundef 1851) #5
  unreachable

78:                                               ; No predecessors!
  br label %79

79:                                               ; preds = %78
  br label %80

80:                                               ; preds = %79, %46
  %81 = load ptr, ptr %8, align 8
  %82 = getelementptr inbounds %struct.Decl_, ptr %81, i32 0, i32 11
  %83 = getelementptr inbounds %struct.LabelDecl, ptr %82, i32 0, i32 4
  %84 = load i32, ptr %83, align 8
  %85 = load ptr, ptr %4, align 8
  %86 = getelementptr inbounds %struct.SemaContext_, ptr %85, i32 0, i32 20
  %87 = getelementptr inbounds %struct.DynamicScope_, ptr %86, i32 0, i32 7
  %88 = load ptr, ptr %87, align 8
  %89 = call i32 @astid(ptr noundef %88)
  %90 = icmp ne i32 %84, %89
  br i1 %90, label %91, label %118

91:                                               ; preds = %80
  %92 = load ptr, ptr %5, align 8
  %93 = getelementptr inbounds %struct.Ast_, ptr %92, i32 0, i32 2
  %94 = load i8, ptr %93, align 4
  %95 = zext i8 %94 to i32
  switch i32 %95, label %114 [
    i32 4, label %96
    i32 7, label %102
    i32 28, label %108
  ]

96:                                               ; preds = %91
  %97 = load ptr, ptr %5, align 8
  %98 = getelementptr inbounds %struct.Ast_, ptr %97, i32 0, i32 0
  %99 = getelementptr inbounds %union.SourceSpan, ptr %98, i32 0, i32 0
  %100 = load i64, ptr %99, align 8
  call void (i64, ptr, ...) @sema_error_at(i64 %100, ptr noundef @.str.30)
  %101 = load ptr, ptr @poisoned_decl, align 8
  store ptr %101, ptr %3, align 8
  br label %192

102:                                              ; preds = %91
  %103 = load ptr, ptr %5, align 8
  %104 = getelementptr inbounds %struct.Ast_, ptr %103, i32 0, i32 0
  %105 = getelementptr inbounds %union.SourceSpan, ptr %104, i32 0, i32 0
  %106 = load i64, ptr %105, align 8
  call void (i64, ptr, ...) @sema_error_at(i64 %106, ptr noundef @.str.31)
  %107 = load ptr, ptr @poisoned_decl, align 8
  store ptr %107, ptr %3, align 8
  br label %192

108:                                              ; preds = %91
  %109 = load ptr, ptr %5, align 8
  %110 = getelementptr inbounds %struct.Ast_, ptr %109, i32 0, i32 0
  %111 = getelementptr inbounds %union.SourceSpan, ptr %110, i32 0, i32 0
  %112 = load i64, ptr %111, align 8
  call void (i64, ptr, ...) @sema_error_at(i64 %112, ptr noundef @.str.32)
  %113 = load ptr, ptr @poisoned_decl, align 8
  store ptr %113, ptr %3, align 8
  br label %192

114:                                              ; preds = %91
  br label %115

115:                                              ; preds = %114
  call void (ptr, ...) @error_exit(ptr noundef @.str.15, ptr noundef @.str.16, ptr noundef @__func__.sema_analyse_label, ptr noundef @.str.17, i32 noundef 1868) #5
  unreachable

116:                                              ; No predecessors!
  br label %117

117:                                              ; preds = %116
  br label %118

118:                                              ; preds = %117, %80
  %119 = load ptr, ptr %5, align 8
  %120 = getelementptr inbounds %struct.Ast_, ptr %119, i32 0, i32 0
  %121 = load ptr, ptr %7, align 8
  %122 = getelementptr inbounds %union.SourceSpan, ptr %120, i32 0, i32 0
  %123 = load i64, ptr %122, align 8
  call void (i64, ptr, ...) @sema_error_at(i64 %123, ptr noundef @.str.33, ptr noundef %121)
  %124 = load ptr, ptr @poisoned_decl, align 8
  store ptr %124, ptr %3, align 8
  br label %192

125:                                              ; preds = %39, %33
  %126 = load ptr, ptr %5, align 8
  %127 = getelementptr inbounds %struct.Ast_, ptr %126, i32 0, i32 0
  %128 = load ptr, ptr %7, align 8
  %129 = getelementptr inbounds %union.SourceSpan, ptr %127, i32 0, i32 0
  %130 = load i64, ptr %129, align 8
  call void (i64, ptr, ...) @sema_error_at(i64 %130, ptr noundef @.str.34, ptr noundef %128)
  %131 = load ptr, ptr @poisoned_decl, align 8
  store ptr %131, ptr %3, align 8
  br label %192

132:                                              ; preds = %23
  %133 = load ptr, ptr %8, align 8
  %134 = getelementptr inbounds %struct.Decl_, ptr %133, i32 0, i32 3
  %135 = load i64, ptr %134, align 8
  %136 = and i64 %135, 127
  %137 = trunc i64 %136 to i32
  %138 = icmp ne i32 %137, 20
  br i1 %138, label %139, label %145

139:                                              ; preds = %132
  %140 = load ptr, ptr %6, align 8
  %141 = getelementptr inbounds %struct.Label, ptr %140, i32 0, i32 1
  %142 = getelementptr inbounds %union.SourceSpan, ptr %141, i32 0, i32 0
  %143 = load i64, ptr %142, align 8
  call void (i64, ptr, ...) @sema_error_at(i64 %143, ptr noundef @.str.35)
  %144 = load ptr, ptr @poisoned_decl, align 8
  store ptr %144, ptr %3, align 8
  br label %192

145:                                              ; preds = %132
  %146 = load ptr, ptr %4, align 8
  %147 = getelementptr inbounds %struct.SemaContext_, ptr %146, i32 0, i32 20
  %148 = getelementptr inbounds %struct.DynamicScope_, ptr %147, i32 0, i32 7
  %149 = load ptr, ptr %148, align 8
  %150 = icmp ne ptr %149, null
  br i1 %150, label %151, label %190

151:                                              ; preds = %145
  %152 = load ptr, ptr %8, align 8
  %153 = getelementptr inbounds %struct.Decl_, ptr %152, i32 0, i32 11
  %154 = getelementptr inbounds %struct.LabelDecl, ptr %153, i32 0, i32 4
  %155 = load i32, ptr %154, align 8
  %156 = load ptr, ptr %4, align 8
  %157 = getelementptr inbounds %struct.SemaContext_, ptr %156, i32 0, i32 20
  %158 = getelementptr inbounds %struct.DynamicScope_, ptr %157, i32 0, i32 7
  %159 = load ptr, ptr %158, align 8
  %160 = call i32 @astid(ptr noundef %159)
  %161 = icmp ne i32 %155, %160
  br i1 %161, label %162, label %189

162:                                              ; preds = %151
  %163 = load ptr, ptr %5, align 8
  %164 = getelementptr inbounds %struct.Ast_, ptr %163, i32 0, i32 2
  %165 = load i8, ptr %164, align 4
  %166 = zext i8 %165 to i32
  switch i32 %166, label %185 [
    i32 4, label %167
    i32 7, label %173
    i32 28, label %179
  ]

167:                                              ; preds = %162
  %168 = load ptr, ptr %5, align 8
  %169 = getelementptr inbounds %struct.Ast_, ptr %168, i32 0, i32 0
  %170 = getelementptr inbounds %union.SourceSpan, ptr %169, i32 0, i32 0
  %171 = load i64, ptr %170, align 8
  call void (i64, ptr, ...) @sema_error_at(i64 %171, ptr noundef @.str.30)
  %172 = load ptr, ptr @poisoned_decl, align 8
  store ptr %172, ptr %3, align 8
  br label %192

173:                                              ; preds = %162
  %174 = load ptr, ptr %5, align 8
  %175 = getelementptr inbounds %struct.Ast_, ptr %174, i32 0, i32 0
  %176 = getelementptr inbounds %union.SourceSpan, ptr %175, i32 0, i32 0
  %177 = load i64, ptr %176, align 8
  call void (i64, ptr, ...) @sema_error_at(i64 %177, ptr noundef @.str.31)
  %178 = load ptr, ptr @poisoned_decl, align 8
  store ptr %178, ptr %3, align 8
  br label %192

179:                                              ; preds = %162
  %180 = load ptr, ptr %5, align 8
  %181 = getelementptr inbounds %struct.Ast_, ptr %180, i32 0, i32 0
  %182 = getelementptr inbounds %union.SourceSpan, ptr %181, i32 0, i32 0
  %183 = load i64, ptr %182, align 8
  call void (i64, ptr, ...) @sema_error_at(i64 %183, ptr noundef @.str.32)
  %184 = load ptr, ptr @poisoned_decl, align 8
  store ptr %184, ptr %3, align 8
  br label %192

185:                                              ; preds = %162
  br label %186

186:                                              ; preds = %185
  call void (ptr, ...) @error_exit(ptr noundef @.str.15, ptr noundef @.str.16, ptr noundef @__func__.sema_analyse_label, ptr noundef @.str.17, i32 noundef 1898) #5
  unreachable

187:                                              ; No predecessors!
  br label %188

188:                                              ; preds = %187
  br label %189

189:                                              ; preds = %188, %151
  br label %190

190:                                              ; preds = %189, %145
  %191 = load ptr, ptr %8, align 8
  store ptr %191, ptr %3, align 8
  br label %192

192:                                              ; preds = %190, %179, %173, %167, %139, %125, %118, %108, %102, %96, %70, %64, %58
  %193 = load ptr, ptr %3, align 8
  ret ptr %193
}