; Function Attrs: nounwind uwtable
define internal fastcc ptr @sema_analyse_label(ptr noundef %0, ptr nocapture noundef readonly %1) unnamed_addr #0 {
  %3 = getelementptr inbounds i8, ptr %1, i64 12
  %4 = getelementptr inbounds i8, ptr %1, i64 24
  %5 = load ptr, ptr %4, align 8
  %6 = tail call ptr @sema_find_label_symbol(ptr noundef %0, ptr noundef %5) #9
  %.not = icmp eq ptr %6, null
  br i1 %.not, label %7, label %59

7:                                                ; preds = %2
  %8 = tail call ptr @sema_find_label_symbol_anywhere(ptr noundef %0, ptr noundef %5) #9
  %.not40 = icmp eq ptr %8, null
  br i1 %.not40, label %56, label %9

9:                                                ; preds = %7
  %10 = getelementptr inbounds i8, ptr %8, i64 24
  %11 = load i64, ptr %10, align 8
  %12 = and i64 %11, 127
  %13 = icmp eq i64 %12, 20
  br i1 %13, label %14, label %56

14:                                               ; preds = %9
  %15 = getelementptr inbounds i8, ptr %0, i64 256
  %16 = load i32, ptr %15, align 8
  %17 = and i32 %16, 8
  %.not41 = icmp eq i32 %17, 0
  br i1 %.not41, label %30, label %18

18:                                               ; preds = %14
  %19 = load i8, ptr %3, align 4
  switch i8 %19, label %29 [
    i8 4, label %20
    i8 7, label %23
    i8 28, label %26
  ]

20:                                               ; preds = %18
  %21 = load i64, ptr %1, align 8
  tail call void (i64, ptr, ...) @sema_error_at(i64 %21, ptr noundef nonnull @.str.27) #9
  %22 = load ptr, ptr @poisoned_decl, align 8
  br label %91

23:                                               ; preds = %18
  %24 = load i64, ptr %1, align 8
  tail call void (i64, ptr, ...) @sema_error_at(i64 %24, ptr noundef nonnull @.str.28) #9
  %25 = load ptr, ptr @poisoned_decl, align 8
  br label %91

26:                                               ; preds = %18
  %27 = load i64, ptr %1, align 8
  tail call void (i64, ptr, ...) @sema_error_at(i64 %27, ptr noundef nonnull @.str.29) #9
  %28 = load ptr, ptr @poisoned_decl, align 8
  br label %91

29:                                               ; preds = %18
  tail call void (ptr, ...) @error_exit(ptr noundef nonnull @.str.15, ptr noundef nonnull @.str.16, ptr noundef nonnull @__func__.sema_analyse_label, ptr noundef nonnull @.str.17, i32 noundef 1851) #10
  unreachable

30:                                               ; preds = %14
  %31 = getelementptr inbounds i8, ptr %8, i64 104
  %32 = load i32, ptr %31, align 8
  %33 = getelementptr inbounds i8, ptr %0, i64 280
  %34 = load ptr, ptr %33, align 8
  %35 = load ptr, ptr @ast_arena, align 8
  %36 = ptrtoint ptr %34 to i64
  %37 = ptrtoint ptr %35 to i64
  %38 = sub i64 %36, %37
  %39 = sdiv exact i64 %38, 48
  %40 = trunc i64 %39 to i32
  %.not42 = icmp eq i32 %32, %40
  br i1 %.not42, label %53, label %41

41:                                               ; preds = %30
  %42 = load i8, ptr %3, align 4
  switch i8 %42, label %52 [
    i8 4, label %43
    i8 7, label %46
    i8 28, label %49
  ]

43:                                               ; preds = %41
  %44 = load i64, ptr %1, align 8
  tail call void (i64, ptr, ...) @sema_error_at(i64 %44, ptr noundef nonnull @.str.30) #9
  %45 = load ptr, ptr @poisoned_decl, align 8
  br label %91

46:                                               ; preds = %41
  %47 = load i64, ptr %1, align 8
  tail call void (i64, ptr, ...) @sema_error_at(i64 %47, ptr noundef nonnull @.str.31) #9
  %48 = load ptr, ptr @poisoned_decl, align 8
  br label %91

49:                                               ; preds = %41
  %50 = load i64, ptr %1, align 8
  tail call void (i64, ptr, ...) @sema_error_at(i64 %50, ptr noundef nonnull @.str.32) #9
  %51 = load ptr, ptr @poisoned_decl, align 8
  br label %91

52:                                               ; preds = %41
  tail call void (ptr, ...) @error_exit(ptr noundef nonnull @.str.15, ptr noundef nonnull @.str.16, ptr noundef nonnull @__func__.sema_analyse_label, ptr noundef nonnull @.str.17, i32 noundef 1868) #10
  unreachable

53:                                               ; preds = %30
  %54 = load i64, ptr %1, align 8
  tail call void (i64, ptr, ...) @sema_error_at(i64 %54, ptr noundef nonnull @.str.33, ptr noundef %5) #9
  %55 = load ptr, ptr @poisoned_decl, align 8
  br label %91

56:                                               ; preds = %9, %7
  %57 = load i64, ptr %1, align 8
  tail call void (i64, ptr, ...) @sema_error_at(i64 %57, ptr noundef nonnull @.str.34, ptr noundef %5) #9
  %58 = load ptr, ptr @poisoned_decl, align 8
  br label %91

59:                                               ; preds = %2
  %60 = getelementptr inbounds i8, ptr %6, i64 24
  %61 = load i64, ptr %60, align 8
  %62 = and i64 %61, 127
  %.not43 = icmp eq i64 %62, 20
  br i1 %.not43, label %67, label %63

63:                                               ; preds = %59
  %64 = getelementptr inbounds i8, ptr %1, i64 32
  %65 = load i64, ptr %64, align 8
  tail call void (i64, ptr, ...) @sema_error_at(i64 %65, ptr noundef nonnull @.str.35) #9
  %66 = load ptr, ptr @poisoned_decl, align 8
  br label %91

67:                                               ; preds = %59
  %68 = getelementptr inbounds i8, ptr %0, i64 280
  %69 = load ptr, ptr %68, align 8
  %.not44 = icmp eq ptr %69, null
  br i1 %.not44, label %91, label %70

70:                                               ; preds = %67
  %71 = getelementptr inbounds i8, ptr %6, i64 104
  %72 = load i32, ptr %71, align 8
  %73 = load ptr, ptr @ast_arena, align 8
  %74 = ptrtoint ptr %69 to i64
  %75 = ptrtoint ptr %73 to i64
  %76 = sub i64 %74, %75
  %77 = sdiv exact i64 %76, 48
  %78 = trunc i64 %77 to i32
  %.not45 = icmp eq i32 %72, %78
  br i1 %.not45, label %91, label %79

79:                                               ; preds = %70
  %80 = load i8, ptr %3, align 4
  switch i8 %80, label %90 [
    i8 4, label %81
    i8 7, label %84
    i8 28, label %87
  ]

81:                                               ; preds = %79
  %82 = load i64, ptr %1, align 8
  tail call void (i64, ptr, ...) @sema_error_at(i64 %82, ptr noundef nonnull @.str.30) #9
  %83 = load ptr, ptr @poisoned_decl, align 8
  br label %91

84:                                               ; preds = %79
  %85 = load i64, ptr %1, align 8
  tail call void (i64, ptr, ...) @sema_error_at(i64 %85, ptr noundef nonnull @.str.31) #9
  %86 = load ptr, ptr @poisoned_decl, align 8
  br label %91

87:                                               ; preds = %79
  %88 = load i64, ptr %1, align 8
  tail call void (i64, ptr, ...) @sema_error_at(i64 %88, ptr noundef nonnull @.str.32) #9
  %89 = load ptr, ptr @poisoned_decl, align 8
  br label %91

90:                                               ; preds = %79
  tail call void (ptr, ...) @error_exit(ptr noundef nonnull @.str.15, ptr noundef nonnull @.str.16, ptr noundef nonnull @__func__.sema_analyse_label, ptr noundef nonnull @.str.17, i32 noundef 1898) #10
  unreachable

91:                                               ; preds = %67, %70, %87, %84, %81, %63, %56, %53, %49, %46, %43, %26, %23, %20
  %.0 = phi ptr [ %66, %63 ], [ %89, %87 ], [ %86, %84 ], [ %83, %81 ], [ %28, %26 ], [ %25, %23 ], [ %22, %20 ], [ %51, %49 ], [ %48, %46 ], [ %45, %43 ], [ %55, %53 ], [ %58, %56 ], [ %6, %70 ], [ %6, %67 ]
  ret ptr %.0
}